target datalayout = "e-m:e-p270:32:32-p271:32:32-p272:64:64-i64:64-i128:128-f80:128-n8:16:32:64-S128"
target triple = "x86_64-pc-linux-gnu"

%struct.expert_field = type { i32, i32 }
%struct._packet_info = type { ptr, ptr, i32, i32, %struct.nstime_t, %struct.nstime_t, %struct.nstime_t, i8, ptr, ptr, ptr, ptr, %struct._address, %struct._address, %struct._address, %struct._address, %struct._address, %struct._address, i32, ptr, i8, [3 x i8], %struct.anon, i32, i32, i32, i32, ptr, i8, ptr, ptr, i16, i16, i32, i32, i16, i32, i32, ptr, ptr, ptr, i8, i8, i16, i16, i16, i32, i16, i16, ptr, ptr, ptr, ptr, ptr, i32, i32 }
%struct.nstime_t = type { i64, i32 }
%struct._address = type { i32, i32, ptr, ptr }
%struct.anon = type { i8, [3 x i8] }

@hf_uftp_fileseg = internal global i32 0, align 4
@hf_uftp_fileseg_func = internal global i32 0, align 4
@hf_uftp_fileseg_reserved1 = internal global i32 0, align 4
@hf_uftp_fileseg_file_id = internal global i32 0, align 4
@hf_uftp_fileseg_pass = internal global i32 0, align 4
@hf_uftp_fileseg_reserved2 = internal global i32 0, align 4
@hf_uftp_fileseg_section = internal global i32 0, align 4
@hf_uftp_fileseg_seq_num = internal global i32 0, align 4
@hf_uftp_fileseg_data = internal global i32 0, align 4
@ett_uftp_fileseg = internal global i32 0, align 4
@ei_uftp_length_invalid = internal global %struct.expert_field zeroinitializer, align 4
@.str.289 = private unnamed_addr constant [19 x i8] c"Invalid length: %d\00", align 1
@.str.294 = private unnamed_addr constant [23 x i8] c":%04X  Pass=%d  Seq=%d\00", align 1

; Function Attrs: null_pointer_is_valid sspstrong uwtable
define internal void @dissect_uftp_fileseg(ptr noundef %0, ptr noundef %1, ptr noundef %2) #0 {
  %4 = alloca ptr, align 8
  %5 = alloca ptr, align 8
  %6 = alloca ptr, align 8
  %7 = alloca ptr, align 8
  %8 = alloca ptr, align 8
  %9 = alloca i32, align 4
  %10 = alloca i8, align 1
  %11 = alloca i16, align 2
  %12 = alloca i32, align 4
  %13 = alloca i32, align 4
  store ptr %0, ptr %4, align 8
  store ptr %1, ptr %5, align 8
  store ptr %2, ptr %6, align 8
  call void @llvm.lifetime.start.p0(i64 8, ptr %7) #3
  store ptr null, ptr %7, align 8
  call void @llvm.lifetime.start.p0(i64 8, ptr %8) #3
  store ptr null, ptr %8, align 8
  call void @llvm.lifetime.start.p0(i64 4, ptr %9) #3
  store i32 0, ptr %9, align 4
  call void @llvm.lifetime.start.p0(i64 1, ptr %10) #3
  call void @llvm.lifetime.start.p0(i64 2, ptr %11) #3
  call void @llvm.lifetime.start.p0(i64 4, ptr %12) #3
  %14 = load ptr, ptr %4, align 8
  %15 = call i32 @tvb_reported_length(ptr noundef %14)
  %16 = icmp ult i32 %15, 12
  br i1 %16, label %17, label %25

17:                                               ; preds = %3
  %18 = load ptr, ptr %6, align 8
  %19 = load ptr, ptr %5, align 8
  %20 = load ptr, ptr %4, align 8
  %21 = load i32, ptr %9, align 4
  %22 = load ptr, ptr %4, align 8
  %23 = call i32 @tvb_reported_length(ptr noundef %22)
  %24 = call ptr (ptr, ptr, ptr, ptr, i32, i32, ptr, ...) @proto_tree_add_expert_format(ptr noundef %18, ptr noundef %19, ptr noundef @ei_uftp_length_invalid, ptr noundef %20, i32 noundef %21, i32 noundef -1, ptr noundef @.str.289, i32 noundef %23)
  store i32 1, ptr %13, align 4
  br label %102

25:                                               ; preds = %3
  %26 = load ptr, ptr %4, align 8
  %27 = call zeroext i16 @tvb_get_ntohs(ptr noundef %26, i32 noundef 2)
  store i16 %27, ptr %11, align 2
  %28 = load ptr, ptr %4, align 8
  %29 = call zeroext i8 @tvb_get_uint8(ptr noundef %28, i32 noundef 4)
  store i8 %29, ptr %10, align 1
  %30 = load ptr, ptr %4, align 8
  %31 = call i32 @tvb_get_ntohl(ptr noundef %30, i32 noundef 8)
  store i32 %31, ptr %12, align 4
  %32 = load ptr, ptr %5, align 8
  %33 = getelementptr inbounds nuw %struct._packet_info, ptr %32, i32 0, i32 1
  %34 = load ptr, ptr %33, align 8
  %35 = load i16, ptr %11, align 2
  %36 = zext i16 %35 to i32
  %37 = load i8, ptr %10, align 1
  %38 = zext i8 %37 to i32
  %39 = load i32, ptr %12, align 4
  call void (ptr, i32, ptr, ...) @col_append_fstr(ptr noundef %34, i32 noundef 25, ptr noundef @.str.294, i32 noundef %36, i32 noundef %38, i32 noundef %39)
  %40 = load ptr, ptr %6, align 8
  %41 = load i32, ptr @hf_uftp_fileseg, align 4
  %42 = load ptr, ptr %4, align 8
  %43 = load i32, ptr %9, align 4
  %44 = call ptr @proto_tree_add_item(ptr noundef %40, i32 noundef %41, ptr noundef %42, i32 noundef %43, i32 noundef -1, i32 noundef 0)
  store ptr %44, ptr %7, align 8
  %45 = load ptr, ptr %7, align 8
  %46 = load i32, ptr @ett_uftp_fileseg, align 4
  %47 = call ptr @proto_item_add_subtree(ptr noundef %45, i32 noundef %46)
  store ptr %47, ptr %8, align 8
  %48 = load ptr, ptr %8, align 8
  %49 = load i32, ptr @hf_uftp_fileseg_func, align 4
  %50 = load ptr, ptr %4, align 8
  %51 = load i32, ptr %9, align 4
  %52 = call ptr @proto_tree_add_item(ptr noundef %48, i32 noundef %49, ptr noundef %50, i32 noundef %51, i32 noundef 1, i32 noundef 0)
  %53 = load i32, ptr %9, align 4
  %54 = add i32 %53, 1
  store i32 %54, ptr %9, align 4
  %55 = load ptr, ptr %8, align 8
  %56 = load i32, ptr @hf_uftp_fileseg_reserved1, align 4
  %57 = load ptr, ptr %4, align 8
  %58 = load i32, ptr %9, align 4
  %59 = call ptr @proto_tree_add_item(ptr noundef %55, i32 noundef %56, ptr noundef %57, i32 noundef %58, i32 noundef 1, i32 noundef 0)
  %60 = load i32, ptr %9, align 4
  %61 = add i32 %60, 1
  store i32 %61, ptr %9, align 4
  %62 = load ptr, ptr %8, align 8
  %63 = load i32, ptr @hf_uftp_fileseg_file_id, align 4
  %64 = load ptr, ptr %4, align 8
  %65 = load i32, ptr %9, align 4
  %66 = call ptr @proto_tree_add_item(ptr noundef %62, i32 noundef %63, ptr noundef %64, i32 noundef %65, i32 noundef 2, i32 noundef 0)
  %67 = load i32, ptr %9, align 4
  %68 = add i32 %67, 2
  store i32 %68, ptr %9, align 4
  %69 = load ptr, ptr %8, align 8
  %70 = load i32, ptr @hf_uftp_fileseg_pass, align 4
  %71 = load ptr, ptr %4, align 8
  %72 = load i32, ptr %9, align 4
  %73 = call ptr @proto_tree_add_item(ptr noundef %69, i32 noundef %70, ptr noundef %71, i32 noundef %72, i32 noundef 1, i32 noundef 0)
  %74 = load i32, ptr %9, align 4
  %75 = add i32 %74, 1
  store i32 %75, ptr %9, align 4
  %76 = load ptr, ptr %8, align 8
  %77 = load i32, ptr @hf_uftp_fileseg_reserved2, align 4
  %78 = load ptr, ptr %4, align 8
  %79 = load i32, ptr %9, align 4
  %80 = call ptr @proto_tree_add_item(ptr noundef %76, i32 noundef %77, ptr noundef %78, i32 noundef %79, i32 noundef 1, i32 noundef 0)
  %81 = load i32, ptr %9, align 4
  %82 = add i32 %81, 1
  store i32 %82, ptr %9, align 4
  %83 = load ptr, ptr %8, align 8
  %84 = load i32, ptr @hf_uftp_fileseg_section, align 4
  %85 = load ptr, ptr %4, align 8
  %86 = load i32, ptr %9, align 4
  %87 = call ptr @proto_tree_add_item(ptr noundef %83, i32 noundef %84, ptr noundef %85, i32 noundef %86, i32 noundef 2, i32 noundef 0)
  %88 = load i32, ptr %9, align 4
  %89 = add i32 %88, 2
  store i32 %89, ptr %9, align 4
  %90 = load ptr, ptr %8, align 8
  %91 = load i32, ptr @hf_uftp_fileseg_seq_num, align 4
  %92 = load ptr, ptr %4, align 8
  %93 = load i32, ptr %9, align 4
  %94 = call ptr @proto_tree_add_item(ptr noundef %90, i32 noundef %91, ptr noundef %92, i32 noundef %93, i32 noundef 4, i32 noundef 0)
  %95 = load i32, ptr %9, align 4
  %96 = add i32 %95, 4
  store i32 %96, ptr %9, align 4
  %97 = load ptr, ptr %8, align 8
  %98 = load i32, ptr @hf_uftp_fileseg_data, align 4
  %99 = load ptr, ptr %4, align 8
  %100 = load i32, ptr %9, align 4
  %101 = call ptr @proto_tree_add_item(ptr noundef %97, i32 noundef %98, ptr noundef %99, i32 noundef %100, i32 noundef -1, i32 noundef 0)
  store i32 0, ptr %13, align 4
  br label %102

102:                                              ; preds = %25, %17
  call void @llvm.lifetime.end.p0(i64 4, ptr %12) #3
  call void @llvm.lifetime.end.p0(i64 2, ptr %11) #3
  call void @llvm.lifetime.end.p0(i64 1, ptr %10) #3
  call void @llvm.lifetime.end.p0(i64 4, ptr %9) #3
  call void @llvm.lifetime.end.p0(i64 8, ptr %8) #3
  call void @llvm.lifetime.end.p0(i64 8, ptr %7) #3
  %103 = load i32, ptr %13, align 4
  switch i32 %103, label %105 [
    i32 0, label %104
    i32 1, label %104
  ]

104:                                              ; preds = %102, %102
  ret void

105:                                              ; preds = %102
  unreachable
}