; Function Attrs: null_pointer_is_valid sspstrong uwtable
define internal fastcc void @dissect_uftp_fileseg(ptr noundef %0, ptr noundef %1, ptr noundef %2) unnamed_addr #0 {
  %4 = tail call i32 @tvb_reported_length(ptr noundef %0)
  %5 = icmp ult i32 %4, 12
  br i1 %5, label %6, label %9

6:                                                ; preds = %3
  %7 = tail call i32 @tvb_reported_length(ptr noundef %0)
  %8 = tail call ptr (ptr, ptr, ptr, ptr, i32, i32, ptr, ...) @proto_tree_add_expert_format(ptr noundef %2, ptr noundef %1, ptr noundef nonnull @ei_uftp_length_invalid, ptr noundef %0, i32 noundef 0, i32 noundef -1, ptr noundef nonnull @.str.289, i32 noundef %7)
  br label %37

9:                                                ; preds = %3
  %10 = tail call zeroext i16 @tvb_get_ntohs(ptr noundef %0, i32 noundef 2)
  %11 = tail call zeroext i8 @tvb_get_uint8(ptr noundef %0, i32 noundef 4)
  %12 = tail call i32 @tvb_get_ntohl(ptr noundef %0, i32 noundef 8)
  %13 = getelementptr inbounds nuw i8, ptr %1, i64 8
  %14 = load ptr, ptr %13, align 8
  %15 = zext i16 %10 to i32
  %16 = zext i8 %11 to i32
  tail call void (ptr, i32, ptr, ...) @col_append_fstr(ptr noundef %14, i32 noundef 25, ptr noundef nonnull @.str.294, i32 noundef %15, i32 noundef %16, i32 noundef %12)
  %17 = load i32, ptr @hf_uftp_fileseg, align 4
  %18 = tail call ptr @proto_tree_add_item(ptr noundef %2, i32 noundef %17, ptr noundef %0, i32 noundef 0, i32 noundef -1, i32 noundef 0)
  %19 = load i32, ptr @ett_uftp_fileseg, align 4
  %20 = tail call ptr @proto_item_add_subtree(ptr noundef %18, i32 noundef %19)
  %21 = load i32, ptr @hf_uftp_fileseg_func, align 4
  %22 = tail call ptr @proto_tree_add_item(ptr noundef %20, i32 noundef %21, ptr noundef %0, i32 noundef 0, i32 noundef 1, i32 noundef 0)
  %23 = load i32, ptr @hf_uftp_fileseg_reserved1, align 4
  %24 = tail call ptr @proto_tree_add_item(ptr noundef %20, i32 noundef %23, ptr noundef %0, i32 noundef 1, i32 noundef 1, i32 noundef 0)
  %25 = load i32, ptr @hf_uftp_fileseg_file_id, align 4
  %26 = tail call ptr @proto_tree_add_item(ptr noundef %20, i32 noundef %25, ptr noundef %0, i32 noundef 2, i32 noundef 2, i32 noundef 0)
  %27 = load i32, ptr @hf_uftp_fileseg_pass, align 4
  %28 = tail call ptr @proto_tree_add_item(ptr noundef %20, i32 noundef %27, ptr noundef %0, i32 noundef 4, i32 noundef 1, i32 noundef 0)
  %29 = load i32, ptr @hf_uftp_fileseg_reserved2, align 4
  %30 = tail call ptr @proto_tree_add_item(ptr noundef %20, i32 noundef %29, ptr noundef %0, i32 noundef 5, i32 noundef 1, i32 noundef 0)
  %31 = load i32, ptr @hf_uftp_fileseg_section, align 4
  %32 = tail call ptr @proto_tree_add_item(ptr noundef %20, i32 noundef %31, ptr noundef %0, i32 noundef 6, i32 noundef 2, i32 noundef 0)
  %33 = load i32, ptr @hf_uftp_fileseg_seq_num, align 4
  %34 = tail call ptr @proto_tree_add_item(ptr noundef %20, i32 noundef %33, ptr noundef %0, i32 noundef 8, i32 noundef 4, i32 noundef 0)
  %35 = load i32, ptr @hf_uftp_fileseg_data, align 4
  %36 = tail call ptr @proto_tree_add_item(ptr noundef %20, i32 noundef %35, ptr noundef %0, i32 noundef 12, i32 noundef -1, i32 noundef 0)
  br label %37

37:                                               ; preds = %9, %6
  ret void
}